target datalayout = "e-m:e-p270:32:32-p271:32:32-p272:64:64-i64:64-i128:128-f80:128-n8:16:32:64-S128"
target triple = "x86_64-pc-linux-gnu"

%"class.(anonymous namespace)::FactSet" = type { %"class.llvm::SmallVector.137" }
%"class.llvm::SmallVector.137" = type { %"class.llvm::SmallVectorImpl.138", %"struct.llvm::SmallVectorStorage.142" }
%"class.llvm::SmallVectorImpl.138" = type { %"class.llvm::SmallVectorTemplateBase.139" }
%"class.llvm::SmallVectorTemplateBase.139" = type { %"class.llvm::SmallVectorTemplateCommon.140" }
%"class.llvm::SmallVectorTemplateCommon.140" = type { %"class.llvm::SmallVectorBase.141" }
%"class.llvm::SmallVectorBase.141" = type { ptr, i64, i64 }
%"struct.llvm::SmallVectorStorage.142" = type { [8 x i8] }
%"class.llvm::ImmutableMap" = type { %"class.llvm::IntrusiveRefCntPtr" }
%"class.llvm::IntrusiveRefCntPtr" = type { ptr }
%"class.(anonymous namespace)::BuildLockset" = type <{ ptr, %"class.(anonymous namespace)::FactSet", ptr, %"class.llvm::ImmutableMap", i32, [4 x i8] }>
%"class.clang::QualType" = type { %"class.llvm::PointerIntPair.110" }
%"class.llvm::PointerIntPair.110" = type { %"struct.llvm::detail::PunnedPointer.111" }
%"struct.llvm::detail::PunnedPointer.111" = type { [8 x i8] }
%"class.clang::Expr" = type { %"class.clang::ValueStmt", %"class.clang::QualType" }
%"class.clang::ValueStmt" = type { %"class.clang::Stmt" }
%"class.clang::Stmt" = type { %union.anon.552 }
%union.anon.552 = type { %"class.clang::Stmt::PseudoObjectExprBitfields" }
%"class.clang::Stmt::PseudoObjectExprBitfields" = type { i64 }
%"class.clang::CastExpr" = type { %"class.clang::Expr", ptr }

; Function Attrs: mustprogress nounwind uwtable
define linkonce_odr hidden noundef ptr @_ZN4llvm16cast_convert_valIN5clang4ExprEPNS1_4StmtES4_E4doitEPKS3_(ptr noundef %0) #0 comdat align 2 {
  %2 = alloca ptr, align 8
  store ptr %0, ptr %2, align 8
  %3 = load ptr, ptr %2, align 8
  ret ptr %3
}

; Function Attrs: mustprogress nounwind uwtable
define linkonce_odr hidden noundef ptr @_ZN4llvm8CastInfoIN5clang4ExprEPNS1_4StmtEvE6doCastERKS4_(ptr noundef nonnull align 8 dereferenceable(8) %0) #0 comdat align 2 {
  %2 = alloca ptr, align 8
  store ptr %0, ptr %2, align 8
  %3 = load ptr, ptr %2, align 8
  %4 = load ptr, ptr %3, align 8
  %5 = call noundef ptr @_ZN4llvm16cast_convert_valIN5clang4ExprEPNS1_4StmtES4_E4doitEPKS3_(ptr noundef %4)
  ret ptr %5
}

; Function Attrs: mustprogress nounwind uwtable
define linkonce_odr hidden noundef ptr @_ZN4llvm4castIN5clang4ExprENS1_4StmtEEEDcPT0_(ptr noundef %0) #0 comdat {
  %2 = alloca ptr, align 8
  store ptr %0, ptr %2, align 8
  %3 = call noundef ptr @_ZN4llvm8CastInfoIN5clang4ExprEPNS1_4StmtEvE6doCastERKS4_(ptr noundef nonnull align 8 dereferenceable(8) %2)
  ret ptr %3
}

; Function Attrs: mustprogress nounwind uwtable
define internal void @_ZN12_GLOBAL__N_112BuildLockset11checkAccessEPKN5clang4ExprENS1_12threadSafety10AccessKindENS5_22ProtectedOperationKindE(ptr noundef nonnull align 8 dereferenceable(60) %0, ptr noundef %1, i32 noundef %2, i32 noundef %3) #0 align 2 {
  %5 = alloca ptr, align 8
  %6 = alloca ptr, align 8
  %7 = alloca i32, align 4
  %8 = alloca i32, align 4
  store ptr %0, ptr %5, align 8
  store ptr %1, ptr %6, align 8
  store i32 %2, ptr %7, align 4
  store i32 %3, ptr %8, align 4
  %9 = load ptr, ptr %5, align 8
  %10 = getelementptr inbounds nuw %"class.(anonymous namespace)::BuildLockset", ptr %9, i32 0, i32 0
  %11 = load ptr, ptr %10, align 8
  %12 = getelementptr inbounds nuw %"class.(anonymous namespace)::BuildLockset", ptr %9, i32 0, i32 1
  %13 = load ptr, ptr %6, align 8
  %14 = load i32, ptr %7, align 4
  %15 = load i32, ptr %8, align 4
  call void @_ZN12_GLOBAL__N_120ThreadSafetyAnalyzer11checkAccessERKNS_7FactSetEPKN5clang4ExprENS4_12threadSafety10AccessKindENS8_22ProtectedOperationKindE(ptr noundef nonnull align 8 dereferenceable(600) %11, ptr noundef nonnull align 8 dereferenceable(32) %12, ptr noundef %13, i32 noundef %14, i32 noundef %15)
  ret void
}

; Function Attrs: mustprogress nounwind uwtable
define linkonce_odr hidden noundef ptr @_ZNK5clang8CastExpr10getSubExprEv(ptr noundef nonnull align 8 dereferenceable(24) %0) #0 comdat align 2 {
  %2 = alloca ptr, align 8
  store ptr %0, ptr %2, align 8
  %3 = load ptr, ptr %2, align 8
  %4 = getelementptr inbounds nuw %"class.clang::CastExpr", ptr %3, i32 0, i32 1
  %5 = load ptr, ptr %4, align 8
  %6 = call noundef ptr @_ZN4llvm4castIN5clang4ExprENS1_4StmtEEEDcPT0_(ptr noundef %5)
  ret ptr %6
}

; Function Attrs: mustprogress nounwind uwtable
define linkonce_odr hidden noundef i32 @_ZNK5clang8CastExpr11getCastKindEv(ptr noundef nonnull align 8 dereferenceable(24) %0) #0 comdat align 2 {
  %2 = alloca ptr, align 8
  store ptr %0, ptr %2, align 8
  %3 = load ptr, ptr %2, align 8
  %4 = getelementptr inbounds nuw %"class.clang::Stmt", ptr %3, i32 0, i32 0
  %5 = load i32, ptr %4, align 8
  %6 = lshr i32 %5, 18
  %7 = and i32 %6, 127
  ret i32 %7
}

; Function Attrs: mustprogress nounwind uwtable
define internal void @_ZN12_GLOBAL__N_112BuildLockset13VisitCastExprEPKN5clang8CastExprE(ptr noundef nonnull align 8 dereferenceable(60) %0, ptr noundef %1) #0 align 2 {
  %3 = alloca ptr, align 8
  %4 = alloca ptr, align 8
  store ptr %0, ptr %3, align 8
  store ptr %1, ptr %4, align 8
  %5 = load ptr, ptr %3, align 8
  %6 = load ptr, ptr %4, align 8
  %7 = call noundef i32 @_ZNK5clang8CastExpr11getCastKindEv(ptr noundef nonnull align 8 dereferenceable(24) %6)
  %8 = icmp ne i32 %7, 4
  br i1 %8, label %9, label %10

9:                                                ; preds = %2
  br label %13

10:                                               ; preds = %2
  %11 = load ptr, ptr %4, align 8
  %12 = call noundef ptr @_ZNK5clang8CastExpr10getSubExprEv(ptr noundef nonnull align 8 dereferenceable(24) %11)
  call void @_ZN12_GLOBAL__N_112BuildLockset11checkAccessEPKN5clang4ExprENS1_12threadSafety10AccessKindENS5_22ProtectedOperationKindE(ptr noundef nonnull align 8 dereferenceable(60) %5, ptr noundef %12, i32 noundef 0, i32 noundef 1)
  br label %13

13:                                               ; preds = %10, %9
  ret void
}

; Function Attrs: mustprogress nounwind uwtable
define internal void @_ZN5clang15StmtVisitorBaseIN4llvm14make_const_ptrEN12_GLOBAL__N_112BuildLocksetEvJEE21VisitImplicitCastExprEPKNS_16ImplicitCastExprE(ptr noundef nonnull align 1 dereferenceable(1) %0, ptr noundef %1) #0 align 2 {
  %3 = alloca ptr, align 8
  %4 = alloca ptr, align 8
  store ptr %0, ptr %3, align 8
  store ptr %1, ptr %4, align 8
  %5 = load ptr, ptr %3, align 8
  %6 = load ptr, ptr %4, align 8
  call void @_ZN12_GLOBAL__N_112BuildLockset13VisitCastExprEPKN5clang8CastExprE(ptr noundef nonnull align 8 dereferenceable(60) %5, ptr noundef %6)
  ret void
}