; Function Attrs: mustprogress nounwind uwtable
define internal fastcc void @_ZN5clang15StmtVisitorBaseIN4llvm14make_const_ptrEN12_GLOBAL__N_112BuildLocksetEvJEE21VisitImplicitCastExprEPKNS_16ImplicitCastExprE(ptr noundef nonnull align 1 dereferenceable(1) %0, ptr noundef readonly captures(none) %1) unnamed_addr #1 align 2 {
  %3 = load i32, ptr %1, align 8
  %4 = and i32 %3, 33292288
  %.not.i = icmp eq i32 %4, 1048576
  br i1 %.not.i, label %5, label %_ZN12_GLOBAL__N_112BuildLockset13VisitCastExprEPKN5clang8CastExprE.exit

5:                                                ; preds = %2
  %6 = getelementptr inbounds nuw i8, ptr %1, i64 16
  %7 = load ptr, ptr %6, align 8
  %8 = load ptr, ptr %0, align 8
  %9 = getelementptr inbounds nuw i8, ptr %0, i64 8
  tail call fastcc void @_ZN12_GLOBAL__N_120ThreadSafetyAnalyzer11checkAccessERKNS_7FactSetEPKN5clang4ExprENS4_12threadSafety10AccessKindENS8_22ProtectedOperationKindE(ptr noundef nonnull align 8 dereferenceable(600) %8, ptr noundef nonnull align 8 dereferenceable(32) %9, ptr noundef nonnull %7, i32 noundef 0, i32 noundef 1)
  br label %_ZN12_GLOBAL__N_112BuildLockset13VisitCastExprEPKN5clang8CastExprE.exit

_ZN12_GLOBAL__N_112BuildLockset13VisitCastExprEPKN5clang8CastExprE.exit: ; preds = %2, %5
  ret void
}